target datalayout = "e-m:e-p270:32:32-p271:32:32-p272:64:64-i64:64-i128:128-f80:128-n8:16:32:64-S128"
target triple = "x86_64-pc-linux-gnu"

%struct.Abc_Ntk_t_ = type { i32, i32, ptr, ptr, ptr, ptr, ptr, ptr, ptr, ptr, ptr, ptr, ptr, [11 x i32], i32, i32, i32, i32, ptr, i32, ptr, ptr, i32, i32, i32, double, i32, %struct.Vec_Int_t_, ptr, ptr, ptr, ptr, ptr, float, i32, ptr, ptr, ptr, ptr, ptr, ptr, ptr, ptr, ptr, ptr, ptr, ptr, ptr, ptr, ptr, ptr, ptr, ptr, ptr, ptr, ptr, ptr }
%struct.Vec_Int_t_ = type { i32, i32, ptr }
%struct.Vec_Ptr_t_ = type { i32, i32, ptr }

; Function Attrs: inlinehint nounwind uwtable
define internal ptr @Vec_PtrEntry(ptr noundef %0, i32 noundef %1) #2 {
  %3 = alloca ptr, align 8
  %4 = alloca i32, align 4
  store ptr %0, ptr %3, align 8, !tbaa !102
  store i32 %1, ptr %4, align 4, !tbaa !10
  %5 = load ptr, ptr %3, align 8, !tbaa !102
  %6 = getelementptr inbounds nuw %struct.Vec_Ptr_t_, ptr %5, i32 0, i32 2
  %7 = load ptr, ptr %6, align 8, !tbaa !38
  %8 = load i32, ptr %4, align 4, !tbaa !10
  %9 = sext i32 %8 to i64
  %10 = getelementptr inbounds ptr, ptr %7, i64 %9
  %11 = load ptr, ptr %10, align 8, !tbaa !41
  ret ptr %11
}

; Function Attrs: inlinehint nounwind uwtable
define internal ptr @Abc_NtkObj(ptr noundef %0, i32 noundef %1) #2 {
  %3 = alloca ptr, align 8
  %4 = alloca i32, align 4
  store ptr %0, ptr %3, align 8, !tbaa !43
  store i32 %1, ptr %4, align 4, !tbaa !10
  %5 = load ptr, ptr %3, align 8, !tbaa !43
  %6 = getelementptr inbounds nuw %struct.Abc_Ntk_t_, ptr %5, i32 0, i32 5
  %7 = load ptr, ptr %6, align 8, !tbaa !37
  %8 = load i32, ptr %4, align 4, !tbaa !10
  %9 = call ptr @Vec_PtrEntry(ptr noundef %7, i32 noundef %8)
  ret ptr %9
}

; Function Attrs: inlinehint nounwind uwtable
define internal i32 @Vec_IntEntry(ptr noundef %0, i32 noundef %1) #2 {
  %3 = alloca ptr, align 8
  %4 = alloca i32, align 4
  store ptr %0, ptr %3, align 8, !tbaa !8
  store i32 %1, ptr %4, align 4, !tbaa !10
  %5 = load ptr, ptr %3, align 8, !tbaa !8
  %6 = getelementptr inbounds nuw %struct.Vec_Int_t_, ptr %5, i32 0, i32 2
  %7 = load ptr, ptr %6, align 8, !tbaa !32
  %8 = load i32, ptr %4, align 4, !tbaa !10
  %9 = sext i32 %8 to i64
  %10 = getelementptr inbounds i32, ptr %7, i64 %9
  %11 = load i32, ptr %10, align 4, !tbaa !10
  ret i32 %11
}

; Function Attrs: inlinehint nounwind uwtable
define internal i32 @Vec_IntSize(ptr noundef %0) #2 {
  %2 = alloca ptr, align 8
  store ptr %0, ptr %2, align 8, !tbaa !8
  %3 = load ptr, ptr %2, align 8, !tbaa !8
  %4 = getelementptr inbounds nuw %struct.Vec_Int_t_, ptr %3, i32 0, i32 1
  %5 = load i32, ptr %4, align 4, !tbaa !30
  ret i32 %5
}

; Function Attrs: nounwind uwtable
define void @Abc_SclUndoRecentChanges(ptr noundef %0, ptr noundef %1) #0 {
  %3 = alloca ptr, align 8
  %4 = alloca ptr, align 8
  %5 = alloca i32, align 4
  %6 = alloca ptr, align 8
  %7 = alloca ptr, align 8
  %8 = alloca ptr, align 8
  store ptr %0, ptr %3, align 8, !tbaa !43
  store ptr %1, ptr %4, align 8, !tbaa !8
  call void @llvm.lifetime.start.p0(i64 4, ptr %5) #12
  %9 = load ptr, ptr %4, align 8, !tbaa !8
  %10 = call i32 @Vec_IntSize(ptr noundef %9)
  %11 = sdiv i32 %10, 3
  %12 = sub nsw i32 %11, 1
  store i32 %12, ptr %5, align 4, !tbaa !10
  br label %13

13:                                               ; preds = %54, %2
  %14 = load i32, ptr %5, align 4, !tbaa !10
  %15 = icmp sge i32 %14, 0
  br i1 %15, label %16, label %57

16:                                               ; preds = %13
  call void @llvm.lifetime.start.p0(i64 8, ptr %6) #12
  %17 = load ptr, ptr %3, align 8, !tbaa !43
  %18 = load ptr, ptr %4, align 8, !tbaa !8
  %19 = load i32, ptr %5, align 4, !tbaa !10
  %20 = mul nsw i32 3, %19
  %21 = add nsw i32 %20, 0
  %22 = call i32 @Vec_IntEntry(ptr noundef %18, i32 noundef %21)
  %23 = call ptr @Abc_NtkObj(ptr noundef %17, i32 noundef %22)
  store ptr %23, ptr %6, align 8, !tbaa !3
  call void @llvm.lifetime.start.p0(i64 8, ptr %7) #12
  %24 = load ptr, ptr %3, align 8, !tbaa !43
  %25 = load ptr, ptr %4, align 8, !tbaa !8
  %26 = load i32, ptr %5, align 4, !tbaa !10
  %27 = mul nsw i32 3, %26
  %28 = add nsw i32 %27, 1
  %29 = call i32 @Vec_IntEntry(ptr noundef %25, i32 noundef %28)
  %30 = call ptr @Abc_NtkObj(ptr noundef %24, i32 noundef %29)
  store ptr %30, ptr %7, align 8, !tbaa !3
  call void @llvm.lifetime.start.p0(i64 8, ptr %8) #12
  %31 = load ptr, ptr %3, align 8, !tbaa !43
  %32 = load ptr, ptr %4, align 8, !tbaa !8
  %33 = load i32, ptr %5, align 4, !tbaa !10
  %34 = mul nsw i32 3, %33
  %35 = add nsw i32 %34, 2
  %36 = call i32 @Vec_IntEntry(ptr noundef %32, i32 noundef %35)
  %37 = call ptr @Abc_NtkObj(ptr noundef %31, i32 noundef %36)
  store ptr %37, ptr %8, align 8, !tbaa !3
  %38 = load ptr, ptr %6, align 8, !tbaa !3
  %39 = load ptr, ptr %7, align 8, !tbaa !3
  %40 = load ptr, ptr %8, align 8, !tbaa !3
  call void @Abc_ObjPatchFanin(ptr noundef %38, ptr noundef %39, ptr noundef %40)
  %41 = load ptr, ptr %6, align 8, !tbaa !3
  call void @Abc_SclTimeIncUpdateLevel(ptr noundef %41)
  %42 = load ptr, ptr %3, align 8, !tbaa !43
  %43 = getelementptr inbounds nuw %struct.Abc_Ntk_t_, ptr %42, i32 0, i32 47
  %44 = load ptr, ptr %43, align 8, !tbaa !104
  %45 = icmp ne ptr %44, null
  br i1 %45, label %46, label %53

46:                                               ; preds = %16
  %47 = load ptr, ptr %8, align 8, !tbaa !3
  %48 = call i32 @Abc_SclIsInv(ptr noundef %47)
  %49 = icmp ne i32 %48, 0
  br i1 %49, label %50, label %53

50:                                               ; preds = %46
  %51 = load ptr, ptr %8, align 8, !tbaa !3
  %52 = load ptr, ptr %6, align 8, !tbaa !3
  call void @Abc_NodeInvUpdateObjFanoutPolarity(ptr noundef %51, ptr noundef %52)
  br label %53

53:                                               ; preds = %50, %46, %16
  call void @llvm.lifetime.end.p0(i64 8, ptr %8) #12
  call void @llvm.lifetime.end.p0(i64 8, ptr %7) #12
  call void @llvm.lifetime.end.p0(i64 8, ptr %6) #12
  br label %54

54:                                               ; preds = %53
  %55 = load i32, ptr %5, align 4, !tbaa !10
  %56 = add nsw i32 %55, -1
  store i32 %56, ptr %5, align 4, !tbaa !10
  br label %13, !llvm.loop !145

57:                                               ; preds = %13
  call void @llvm.lifetime.end.p0(i64 4, ptr %5) #12
  ret void
}