; Function Attrs: nounwind uwtable
define void @Abc_SclUndoRecentChanges(ptr noundef readonly captures(none) %0, ptr noundef readonly captures(none) %1) local_unnamed_addr #0 {
  %3 = getelementptr i8, ptr %1, i64 4
  %.val22 = load i32, ptr %3, align 4, !tbaa !28
  %4 = icmp sgt i32 %.val22, 2
  br i1 %4, label %.lr.ph, label %._crit_edge

.lr.ph:                                           ; preds = %2
  %5 = getelementptr i8, ptr %1, i64 8
  %6 = getelementptr i8, ptr %0, i64 32
  %7 = getelementptr inbounds nuw i8, ptr %0, i64 384
  %8 = udiv i32 %.val22, 3
  %9 = zext nneg i32 %8 to i64
  br label %10

10:                                               ; preds = %.lr.ph, %31
  %indvars.iv = phi i64 [ %9, %.lr.ph ], [ %indvars.iv.next, %31 ]
  %indvars.iv.next = add nsw i64 %indvars.iv, -1
  %.val21 = load ptr, ptr %5, align 8, !tbaa !30
  %.idx = mul nuw nsw i64 %indvars.iv.next, 12
  %11 = getelementptr inbounds nuw i8, ptr %.val21, i64 %.idx
  %12 = load i32, ptr %11, align 4, !tbaa !31
  %.val25 = load ptr, ptr %6, align 8, !tbaa !34
  %13 = getelementptr i8, ptr %.val25, i64 8
  %.val25.val = load ptr, ptr %13, align 8, !tbaa !35
  %14 = sext i32 %12 to i64
  %15 = getelementptr inbounds ptr, ptr %.val25.val, i64 %14
  %16 = load ptr, ptr %15, align 8, !tbaa !37
  %17 = getelementptr inbounds nuw i8, ptr %11, i64 4
  %18 = load i32, ptr %17, align 4, !tbaa !31
  %19 = sext i32 %18 to i64
  %20 = getelementptr inbounds ptr, ptr %.val25.val, i64 %19
  %21 = load ptr, ptr %20, align 8, !tbaa !37
  %22 = getelementptr inbounds nuw i8, ptr %11, i64 8
  %23 = load i32, ptr %22, align 4, !tbaa !31
  %24 = sext i32 %23 to i64
  %25 = getelementptr inbounds ptr, ptr %.val25.val, i64 %24
  %26 = load ptr, ptr %25, align 8, !tbaa !37
  tail call void @Abc_ObjPatchFanin(ptr noundef %16, ptr noundef %21, ptr noundef %26) #27
  tail call void @Abc_SclTimeIncUpdateLevel(ptr noundef %16) #27
  %27 = load ptr, ptr %7, align 8, !tbaa !112
  %.not = icmp eq ptr %27, null
  br i1 %.not, label %31, label %28

28:                                               ; preds = %10
  %29 = tail call i32 @Abc_SclIsInv(ptr noundef %26) #27
  %.not19 = icmp eq i32 %29, 0
  br i1 %.not19, label %31, label %30

30:                                               ; preds = %28
  tail call void @Abc_NodeInvUpdateObjFanoutPolarity(ptr noundef %26, ptr noundef %16) #27
  br label %31

31:                                               ; preds = %30, %28, %10
  %32 = icmp samesign ugt i64 %indvars.iv, 1
  br i1 %32, label %10, label %._crit_edge, !llvm.loop !142

._crit_edge:                                      ; preds = %31, %2
  ret void
}